; Function Attrs: mustprogress nofree norecurse nosync nounwind willreturn memory(read, inaccessiblemem: none) uwtable
define noundef zeroext i1 @_ZN6casadi3anyERKSt6vectorIbSaIbEE(ptr noundef nonnull readonly align 8 captures(none) dereferenceable(40) %0) local_unnamed_addr #8 personality ptr @__gxx_personality_v0 {
  %2 = load ptr, ptr %0, align 8, !tbaa !54
  %3 = getelementptr inbounds nuw i8, ptr %0, i64 16
  %4 = load ptr, ptr %3, align 8, !tbaa !54
  %5 = getelementptr inbounds nuw i8, ptr %0, i64 24
  %6 = load i32, ptr %5, align 8, !tbaa !57
  %7 = icmp ne ptr %2, %4
  %8 = icmp ne i32 %6, 0
  %.not3.i.not.not25 = select i1 %7, i1 true, i1 %8
  br i1 %.not3.i.not.not25, label %.lr.ph, label %._crit_edge

.lr.ph:                                           ; preds = %1, %_ZNSt19_Bit_const_iteratorppEv.exit
  %.sroa.7.027 = phi i32 [ %spec.select20, %_ZNSt19_Bit_const_iteratorppEv.exit ], [ 0, %1 ]
  %.sroa.014.026 = phi ptr [ %spec.select19, %_ZNSt19_Bit_const_iteratorppEv.exit ], [ %2, %1 ]
  %9 = zext nneg i32 %.sroa.7.027 to i64
  %10 = shl nuw i64 1, %9
  %11 = load i64, ptr %.sroa.014.026, align 8, !tbaa !20
  %12 = and i64 %11, %10
  %.not.not.not = icmp ne i64 %12, 0
  br i1 %.not.not.not, label %._crit_edge, label %_ZNSt19_Bit_const_iteratorppEv.exit

_ZNSt19_Bit_const_iteratorppEv.exit:              ; preds = %.lr.ph
  %13 = add i32 %.sroa.7.027, 1
  %14 = icmp eq i32 %.sroa.7.027, 63
  %spec.select19.idx = select i1 %14, i64 8, i64 0
  %spec.select19 = getelementptr inbounds nuw i8, ptr %.sroa.014.026, i64 %spec.select19.idx
  %spec.select20 = select i1 %14, i32 0, i32 %13
  %15 = icmp ne ptr %spec.select19, %4
  %16 = icmp ne i32 %spec.select20, %6
  %.not3.i.not.not = select i1 %15, i1 true, i1 %16
  br i1 %.not3.i.not.not, label %.lr.ph, label %._crit_edge

._crit_edge:                                      ; preds = %.lr.ph, %_ZNSt19_Bit_const_iteratorppEv.exit, %1
  %.not3.i.not.not.lcssa = phi i1 [ false, %1 ], [ %.not.not.not, %_ZNSt19_Bit_const_iteratorppEv.exit ], [ %.not.not.not, %.lr.ph ]
  ret i1 %.not3.i.not.not.lcssa
}